; Function Attrs: mustprogress nofree norecurse nosync nounwind memory(read, argmem: readwrite, inaccessiblemem: none) uwtable
define void @_ZNK5Ipopt10SymTMatrix10FillStructEPiS1_(ptr noundef nonnull readonly align 8 captures(none) dereferenceable(97) %0, ptr noundef writeonly captures(none) %1, ptr noundef writeonly captures(none) %2) local_unnamed_addr #10 align 2 {
  %4 = getelementptr inbounds nuw i8, ptr %0, i64 80
  %5 = load ptr, ptr %4, align 8, !tbaa !28
  %6 = getelementptr inbounds nuw i8, ptr %5, i64 20
  %7 = load i32, ptr %6, align 4, !tbaa !34
  %8 = icmp sgt i32 %7, 0
  br i1 %8, label %.lr.ph, label %._crit_edge

.lr.ph:                                           ; preds = %3
  %9 = getelementptr inbounds nuw i8, ptr %5, i64 24
  %10 = load ptr, ptr %9, align 8, !tbaa !39
  %11 = getelementptr inbounds nuw i8, ptr %5, i64 32
  %12 = load ptr, ptr %11, align 8, !tbaa !40
  br label %13

._crit_edge:                                      ; preds = %13, %3
  ret void

13:                                               ; preds = %.lr.ph, %13
  %indvars.iv = phi i64 [ 0, %.lr.ph ], [ %indvars.iv.next, %13 ]
  %14 = getelementptr inbounds nuw i32, ptr %10, i64 %indvars.iv
  %15 = load i32, ptr %14, align 4, !tbaa !59
  %16 = getelementptr inbounds nuw i32, ptr %1, i64 %indvars.iv
  store i32 %15, ptr %16, align 4, !tbaa !59
  %17 = getelementptr inbounds nuw i32, ptr %12, i64 %indvars.iv
  %18 = load i32, ptr %17, align 4, !tbaa !59
  %19 = getelementptr inbounds nuw i32, ptr %2, i64 %indvars.iv
  store i32 %18, ptr %19, align 4, !tbaa !59
  %indvars.iv.next = add nuw nsw i64 %indvars.iv, 1
  %20 = load i32, ptr %6, align 4, !tbaa !34
  %21 = sext i32 %20 to i64
  %22 = icmp slt i64 %indvars.iv.next, %21
  br i1 %22, label %13, label %._crit_edge, !llvm.loop !63
}